; Function Attrs: mustprogress null_pointer_is_valid sspstrong uwtable
define void @_ZN23CaptureCommentTabWidget11setReadOnlyEb(ptr noundef align 8 dereferenceable_or_null(40) %0, i1 noundef zeroext %1) local_unnamed_addr #0 align 2 {
  %3 = tail call noundef i32 @_ZNK10QTabWidget5countEv(ptr noundef align 8 dereferenceable_or_null(40) %0)
  %4 = icmp sgt i32 %3, 0
  br i1 %4, label %.lr.ph, label %._crit_edge

._crit_edge:                                      ; preds = %8, %2
  ret void

.lr.ph:                                           ; preds = %2, %8
  %.07 = phi i32 [ %9, %8 ], [ 0, %2 ]
  %5 = tail call noundef ptr @_ZNK10QTabWidget6widgetEi(ptr noundef align 8 dereferenceable_or_null(40) %0, i32 noundef %.07)
  %6 = tail call noundef ptr @_ZNK11QMetaObject4castEPK7QObject(ptr noundef nonnull align 8 dereferenceable_or_null(56) @_ZN14QPlainTextEdit16staticMetaObjectE, ptr noundef %5)
  %.not = icmp eq ptr %6, null
  br i1 %.not, label %8, label %7

7:                                                ; preds = %.lr.ph
  tail call void @_ZN14QPlainTextEdit11setReadOnlyEb(ptr noundef nonnull align 8 dereferenceable_or_null(40) %6, i1 noundef zeroext %1)
  br label %8

8:                                                ; preds = %.lr.ph, %7
  %9 = add nuw nsw i32 %.07, 1
  %10 = tail call noundef i32 @_ZNK10QTabWidget5countEv(ptr noundef align 8 dereferenceable_or_null(40) %0)
  %11 = icmp slt i32 %9, %10
  br i1 %11, label %.lr.ph, label %._crit_edge, !llvm.loop !6
}